#include <math.h>
#include <stdio.h>
#include <stdlib.h>
#include <string.h>

int month(int m);
int main()
{
	int w,m,result=0;
	scanf("%d",&w);
	for(m=0;m<12;m++){
		result+=month(m);
		if((w+result)%7==0){
			printf("%d\n",m+1);
		}
	}
	return 0;
}
int month(int m)
{
	if(m==0){
		return 0;
	}
	else if(m==1||m==3||m==5||m==7||m==8||m==10){
		return 31;
	}
	else if(m==2){
		return 28;
	}
	else if(m==4||m==6||m==9||m==11){
		return 30;
	}
}