; ModuleID = 'source-C-CXX/49/1764.c'
source_filename = "source-C-CXX/49/1764.c"
target datalayout = "e-m:e-p270:32:32-p271:32:32-p272:64:64-i64:64-f80:128-n8:16:32:64-S128"
target triple = "x86_64-pc-linux-gnu"

@.str = private unnamed_addr constant [3 x i8] c"%d\00", align 1
@.str.1 = private unnamed_addr constant [4 x i8] c"%d\0A\00", align 1
@switch.table.month = private unnamed_addr constant [11 x i32] [i32 0, i32 31, i32 28, i32 31, i32 30, i32 31, i32 30, i32 31, i32 31, i32 30, i32 31], align 4

; Function Attrs: nofree nounwind sspstrong uwtable
define dso_local i32 @main() local_unnamed_addr #0 {
  %1 = alloca i32, align 4
  %2 = bitcast i32* %1 to i8*
  call void @llvm.lifetime.start.p0i8(i64 4, i8* nonnull %2) #4
  %3 = call i32 (i8*, ...) @__isoc99_scanf(i8* getelementptr inbounds ([3 x i8], [3 x i8]* @.str, i64 0, i64 0), i32* nonnull %1)
  %4 = load i32, i32* %1, align 4, !tbaa !5
  %5 = srem i32 %4, 7
  %6 = icmp eq i32 %5, 0
  br i1 %6, label %7, label %9

7:                                                ; preds = %0
  %8 = call i32 (i8*, ...) @printf(i8* nonnull dereferenceable(1) getelementptr inbounds ([4 x i8], [4 x i8]* @.str.1, i64 0, i64 0), i32 1)
  br label %9

9:                                                ; preds = %0, %7
  %10 = load i32, i32* %1, align 4, !tbaa !5
  %11 = add nsw i32 %10, 31
  %12 = srem i32 %11, 7
  %13 = icmp eq i32 %12, 0
  br i1 %13, label %14, label %16

14:                                               ; preds = %9
  %15 = call i32 (i8*, ...) @printf(i8* nonnull dereferenceable(1) getelementptr inbounds ([4 x i8], [4 x i8]* @.str.1, i64 0, i64 0), i32 2)
  br label %16

16:                                               ; preds = %14, %9
  %17 = load i32, i32* %1, align 4, !tbaa !5
  %18 = add nsw i32 %17, 59
  %19 = srem i32 %18, 7
  %20 = icmp eq i32 %19, 0
  br i1 %20, label %21, label %23

21:                                               ; preds = %16
  %22 = call i32 (i8*, ...) @printf(i8* nonnull dereferenceable(1) getelementptr inbounds ([4 x i8], [4 x i8]* @.str.1, i64 0, i64 0), i32 3)
  br label %23

23:                                               ; preds = %21, %16
  %24 = load i32, i32* %1, align 4, !tbaa !5
  %25 = add nsw i32 %24, 90
  %26 = srem i32 %25, 7
  %27 = icmp eq i32 %26, 0
  br i1 %27, label %28, label %30

28:                                               ; preds = %23
  %29 = call i32 (i8*, ...) @printf(i8* nonnull dereferenceable(1) getelementptr inbounds ([4 x i8], [4 x i8]* @.str.1, i64 0, i64 0), i32 4)
  br label %30

30:                                               ; preds = %28, %23
  %31 = load i32, i32* %1, align 4, !tbaa !5
  %32 = add nsw i32 %31, 120
  %33 = srem i32 %32, 7
  %34 = icmp eq i32 %33, 0
  br i1 %34, label %35, label %37

35:                                               ; preds = %30
  %36 = call i32 (i8*, ...) @printf(i8* nonnull dereferenceable(1) getelementptr inbounds ([4 x i8], [4 x i8]* @.str.1, i64 0, i64 0), i32 5)
  br label %37

37:                                               ; preds = %35, %30
  %38 = load i32, i32* %1, align 4, !tbaa !5
  %39 = add nsw i32 %38, 151
  %40 = srem i32 %39, 7
  %41 = icmp eq i32 %40, 0
  br i1 %41, label %42, label %44

42:                                               ; preds = %37
  %43 = call i32 (i8*, ...) @printf(i8* nonnull dereferenceable(1) getelementptr inbounds ([4 x i8], [4 x i8]* @.str.1, i64 0, i64 0), i32 6)
  br label %44

44:                                               ; preds = %42, %37
  %45 = load i32, i32* %1, align 4, !tbaa !5
  %46 = add nsw i32 %45, 181
  %47 = srem i32 %46, 7
  %48 = icmp eq i32 %47, 0
  br i1 %48, label %49, label %51

49:                                               ; preds = %44
  %50 = call i32 (i8*, ...) @printf(i8* nonnull dereferenceable(1) getelementptr inbounds ([4 x i8], [4 x i8]* @.str.1, i64 0, i64 0), i32 7)
  br label %51

51:                                               ; preds = %49, %44
  %52 = load i32, i32* %1, align 4, !tbaa !5
  %53 = add nsw i32 %52, 212
  %54 = srem i32 %53, 7
  %55 = icmp eq i32 %54, 0
  br i1 %55, label %56, label %58

56:                                               ; preds = %51
  %57 = call i32 (i8*, ...) @printf(i8* nonnull dereferenceable(1) getelementptr inbounds ([4 x i8], [4 x i8]* @.str.1, i64 0, i64 0), i32 8)
  br label %58

58:                                               ; preds = %56, %51
  %59 = load i32, i32* %1, align 4, !tbaa !5
  %60 = add nsw i32 %59, 243
  %61 = srem i32 %60, 7
  %62 = icmp eq i32 %61, 0
  br i1 %62, label %63, label %65

63:                                               ; preds = %58
  %64 = call i32 (i8*, ...) @printf(i8* nonnull dereferenceable(1) getelementptr inbounds ([4 x i8], [4 x i8]* @.str.1, i64 0, i64 0), i32 9)
  br label %65

65:                                               ; preds = %63, %58
  %66 = load i32, i32* %1, align 4, !tbaa !5
  %67 = add nsw i32 %66, 273
  %68 = srem i32 %67, 7
  %69 = icmp eq i32 %68, 0
  br i1 %69, label %70, label %72

70:                                               ; preds = %65
  %71 = call i32 (i8*, ...) @printf(i8* nonnull dereferenceable(1) getelementptr inbounds ([4 x i8], [4 x i8]* @.str.1, i64 0, i64 0), i32 10)
  br label %72

72:                                               ; preds = %70, %65
  %73 = load i32, i32* %1, align 4, !tbaa !5
  %74 = add nsw i32 %73, 304
  %75 = srem i32 %74, 7
  %76 = icmp eq i32 %75, 0
  br i1 %76, label %77, label %79

77:                                               ; preds = %72
  %78 = call i32 (i8*, ...) @printf(i8* nonnull dereferenceable(1) getelementptr inbounds ([4 x i8], [4 x i8]* @.str.1, i64 0, i64 0), i32 11)
  br label %79

79:                                               ; preds = %77, %72
  %80 = load i32, i32* %1, align 4, !tbaa !5
  %81 = add nsw i32 %80, 334
  %82 = srem i32 %81, 7
  %83 = icmp eq i32 %82, 0
  br i1 %83, label %84, label %86

84:                                               ; preds = %79
  %85 = call i32 (i8*, ...) @printf(i8* nonnull dereferenceable(1) getelementptr inbounds ([4 x i8], [4 x i8]* @.str.1, i64 0, i64 0), i32 12)
  br label %86

86:                                               ; preds = %84, %79
  call void @llvm.lifetime.end.p0i8(i64 4, i8* nonnull %2) #4
  ret i32 0
}

; Function Attrs: argmemonly mustprogress nofree nosync nounwind willreturn
declare void @llvm.lifetime.start.p0i8(i64 immarg, i8* nocapture) #1

; Function Attrs: nofree nounwind
declare noundef i32 @__isoc99_scanf(i8* nocapture noundef readonly, ...) local_unnamed_addr #2

; Function Attrs: mustprogress nofree norecurse nosync nounwind readnone sspstrong uwtable willreturn
define dso_local i32 @month(i32 %0) local_unnamed_addr #3 {
  %2 = icmp ult i32 %0, 11
  br i1 %2, label %3, label %7

3:                                                ; preds = %1
  %4 = sext i32 %0 to i64
  %5 = getelementptr inbounds [11 x i32], [11 x i32]* @switch.table.month, i64 0, i64 %4
  %6 = load i32, i32* %5, align 4
  br label %7

7:                                                ; preds = %1, %3
  %8 = phi i32 [ %6, %3 ], [ 30, %1 ]
  ret i32 %8
}

; Function Attrs: nofree nounwind
declare noundef i32 @printf(i8* nocapture noundef readonly, ...) local_unnamed_addr #2

; Function Attrs: argmemonly mustprogress nofree nosync nounwind willreturn
declare void @llvm.lifetime.end.p0i8(i64 immarg, i8* nocapture) #1


!llvm.module.flags = !{!0, !1, !2, !3}
!llvm.ident = !{!4}

!0 = !{i32 1, !"wchar_size", i32 4}
!1 = !{i32 7, !"PIC Level", i32 2}
!2 = !{i32 7, !"PIE Level", i32 2}
!3 = !{i32 7, !"uwtable", i32 1}
!4 = !{!"clang version 13.0.0"}
!5 = !{!6, !6, i64 0}
!6 = !{!"int", !7, i64 0}
!7 = !{!"omnipotent char", !8, i64 0}
!8 = !{!"Simple C/C++ TBAA"}
